; Function Attrs: mustprogress uwtable
define void @_ZN2cv15line_descriptor23BinaryDescriptorMatcher5clearEv(ptr noundef nonnull align 8 dereferenceable(180) %0) unnamed_addr #3 align 2 personality ptr @__gxx_personality_v0 {
  %2 = getelementptr inbounds nuw i8, ptr %0, i64 8
  tail call void @_ZN2cv3Mat7releaseEv(ptr noundef nonnull align 8 dereferenceable(96) %2)
  %3 = getelementptr inbounds nuw i8, ptr %0, i64 104
  %4 = getelementptr inbounds nuw i8, ptr %0, i64 120
  %5 = load ptr, ptr %4, align 8, !tbaa !14
  invoke void @_ZNSt8_Rb_treeIiSt4pairIKiiESt10_Select1stIS2_ESt4lessIiESaIS2_EE8_M_eraseEPSt13_Rb_tree_nodeIS2_E(ptr noundef nonnull align 8 dereferenceable(48) %3, ptr noundef %5)
          to label %_ZNSt3mapIiiSt4lessIiESaISt4pairIKiiEEE5clearEv.exit unwind label %6

6:                                                ; preds = %1
  %7 = landingpad { ptr, i32 }
          catch ptr null
  %8 = extractvalue { ptr, i32 } %7, 0
  tail call void @__clang_call_terminate(ptr %8) #30
  unreachable

_ZNSt3mapIiiSt4lessIiESaISt4pairIKiiEEE5clearEv.exit: ; preds = %1
  %9 = getelementptr inbounds nuw i8, ptr %0, i64 112
  store ptr null, ptr %4, align 8, !tbaa !14
  %10 = getelementptr inbounds nuw i8, ptr %0, i64 128
  store ptr %9, ptr %10, align 8, !tbaa !15
  %11 = getelementptr inbounds nuw i8, ptr %0, i64 136
  store ptr %9, ptr %11, align 8, !tbaa !16
  %12 = getelementptr inbounds nuw i8, ptr %0, i64 144
  %13 = getelementptr inbounds nuw i8, ptr %0, i64 160
  tail call void @llvm.memset.p0.i64(ptr noundef nonnull align 8 dereferenceable(16) %12, i8 0, i64 16, i1 false)
  %14 = load ptr, ptr %13, align 8, !tbaa !28
  store ptr null, ptr %13, align 8, !tbaa !28
  %.not.i.i.i.i = icmp eq ptr %14, null
  br i1 %.not.i.i.i.i, label %_ZN2cv3PtrINS_15line_descriptor23BinaryDescriptorMatcher8MihasherEE7releaseEv.exit, label %15

15:                                               ; preds = %_ZNSt3mapIiiSt4lessIiESaISt4pairIKiiEEE5clearEv.exit
  %16 = getelementptr inbounds nuw i8, ptr %14, i64 8
  %17 = load atomic i64, ptr %16 acquire, align 8
  %18 = icmp eq i64 %17, 4294967297
  %19 = trunc i64 %17 to i32
  br i1 %18, label %20, label %28

20:                                               ; preds = %15
  store i32 0, ptr %16, align 8, !tbaa !17
  %21 = getelementptr inbounds nuw i8, ptr %14, i64 12
  store i32 0, ptr %21, align 4, !tbaa !20
  %22 = load ptr, ptr %14, align 8, !tbaa !3
  %23 = getelementptr inbounds nuw i8, ptr %22, i64 16
  %24 = load ptr, ptr %23, align 8
  tail call void %24(ptr noundef nonnull align 8 dereferenceable(16) %14) #26
  %25 = load ptr, ptr %14, align 8, !tbaa !3
  %26 = getelementptr inbounds nuw i8, ptr %25, i64 24
  %27 = load ptr, ptr %26, align 8
  tail call void %27(ptr noundef nonnull align 8 dereferenceable(16) %14) #26
  br label %_ZN2cv3PtrINS_15line_descriptor23BinaryDescriptorMatcher8MihasherEE7releaseEv.exit

28:                                               ; preds = %15
  %29 = load i8, ptr @__libc_single_threaded, align 1, !tbaa !29
  %.not.i.i.i.i.i = icmp eq i8 %29, 0
  br i1 %.not.i.i.i.i.i, label %32, label %30

30:                                               ; preds = %28
  %31 = add nsw i32 %19, -1
  store i32 %31, ptr %16, align 4, !tbaa !30
  br label %_ZN9__gnu_cxx27__exchange_and_add_dispatchEPii.exit.i.i.i.i.i

32:                                               ; preds = %28
  %33 = atomicrmw volatile add ptr %16, i32 -1 acq_rel, align 4
  br label %_ZN9__gnu_cxx27__exchange_and_add_dispatchEPii.exit.i.i.i.i.i

_ZN9__gnu_cxx27__exchange_and_add_dispatchEPii.exit.i.i.i.i.i: ; preds = %32, %30
  %.0.i.i.i.i.i.i = phi i32 [ %19, %30 ], [ %33, %32 ]
  %34 = icmp eq i32 %.0.i.i.i.i.i.i, 1
  br i1 %34, label %35, label %_ZN2cv3PtrINS_15line_descriptor23BinaryDescriptorMatcher8MihasherEE7releaseEv.exit, !prof !31

35:                                               ; preds = %_ZN9__gnu_cxx27__exchange_and_add_dispatchEPii.exit.i.i.i.i.i
  tail call void @_ZNSt16_Sp_counted_baseILN9__gnu_cxx12_Lock_policyE2EE24_M_release_last_use_coldEv(ptr noundef nonnull align 8 dereferenceable(16) %14) #26
  br label %_ZN2cv3PtrINS_15line_descriptor23BinaryDescriptorMatcher8MihasherEE7releaseEv.exit

_ZN2cv3PtrINS_15line_descriptor23BinaryDescriptorMatcher8MihasherEE7releaseEv.exit: ; preds = %_ZNSt3mapIiiSt4lessIiESaISt4pairIKiiEEE5clearEv.exit, %20, %_ZN9__gnu_cxx27__exchange_and_add_dispatchEPii.exit.i.i.i.i.i, %35
  %36 = getelementptr inbounds nuw i8, ptr %0, i64 168
  store i32 0, ptr %36, align 8, !tbaa !32
  %37 = getelementptr inbounds nuw i8, ptr %0, i64 172
  store i32 0, ptr %37, align 4, !tbaa !50
  %38 = getelementptr inbounds nuw i8, ptr %0, i64 176
  store i32 0, ptr %38, align 8, !tbaa !51
  ret void
}